; Function Attrs: mustprogress uwtable
define noundef i64 @_ZNK8proxygen11HTTPSession22getCodecSendWindowSizeEv(ptr nocapture noundef nonnull readonly align 8 dereferenceable(2504) %this) local_unnamed_addr #3 align 2 {
entry:
  %call_.i.i = getelementptr inbounds i8, ptr %this, i64 992
  %0 = load ptr, ptr %call_.i.i, align 8
  %vtable = load ptr, ptr %0, align 8
  %vfn = getelementptr inbounds i8, ptr %vtable, i64 368
  %1 = load ptr, ptr %vfn, align 8
  %call2 = tail call noundef ptr %1(ptr noundef nonnull align 8 dereferenceable(8) %0)
  %tobool.not = icmp eq ptr %call2, null
  %2 = load ptr, ptr %call_.i.i, align 8
  %vtable11 = load ptr, ptr %2, align 8
  %vfn12 = getelementptr inbounds i8, ptr %vtable11, i64 400
  %3 = load ptr, ptr %vfn12, align 8
  %call13 = tail call noundef i32 %3(ptr noundef nonnull align 8 dereferenceable(8) %2)
  %conv14 = zext i32 %call13 to i64
  br i1 %tobool.not, label %return, label %if.then

if.then:                                          ; preds = %entry
  %call8 = tail call noundef i64 @_ZNK8proxygen12HTTPSettings10getSettingENS_10SettingsIdEm(ptr noundef nonnull align 8 dereferenceable(24) %call2, i64 noundef 4, i64 noundef %conv14)
  br label %return

return:                                           ; preds = %entry, %if.then
  %retval.0 = phi i64 [ %call8, %if.then ], [ %conv14, %entry ]
  ret i64 %retval.0
}